target datalayout = "e-m:e-p270:32:32-p271:32:32-p272:64:64-i64:64-i128:128-f80:128-n8:16:32:64-S128"
target triple = "x86_64-pc-linux-gnu"

%struct.sio_par = type { i32, i32, i32, i32, i32, i32, i32, i32, i32, i32, i32, i32, [3 x i32], i32 }
%struct.PaSndioStream = type { %struct.PaUtilStreamRepresentation, %struct.PaUtilBufferProcessor, ptr, %struct.sio_par, i32, i32, i32, i64, ptr, ptr, i64, i64, i64 }
%struct.PaUtilStreamRepresentation = type { i64, ptr, ptr, ptr, ptr, ptr, %struct.PaStreamInfo }
%struct.PaStreamInfo = type { i32, double, double, double }
%struct.PaUtilBufferProcessor = type { i64, i64, i32, i32, i32, i32, i64, i32, i32, i32, i32, ptr, ptr, i32, i32, i32, i32, ptr, ptr, i64, i64, ptr, ptr, i64, ptr, ptr, i64, ptr, i64, i32, [2 x i64], [2 x ptr], i32, [2 x i64], [2 x ptr], %struct.PaUtilTriangularDitherGenerator, double, ptr, ptr }
%struct.PaUtilTriangularDitherGenerator = type { i32, i32, i32 }
%struct.pollfd = type { i32, i16, i16 }

@.str.4 = private unnamed_addr constant [5 x i8] c"poll\00", align 1

; Function Attrs: nounwind uwtable
define internal i64 @BlockingGetStreamReadAvailable(ptr noundef %0) #0 {
  %2 = alloca i64, align 8
  %3 = alloca ptr, align 8
  %4 = alloca ptr, align 8
  %5 = alloca %struct.pollfd, align 4
  %6 = alloca i32, align 4
  %7 = alloca i32, align 4
  store ptr %0, ptr %3, align 8
  %8 = load ptr, ptr %3, align 8
  store ptr %8, ptr %4, align 8
  %9 = load ptr, ptr %4, align 8
  %10 = getelementptr inbounds nuw %struct.PaSndioStream, ptr %9, i32 0, i32 2
  %11 = load ptr, ptr %10, align 8
  %12 = call i32 @sio_pollfd(ptr noundef %11, ptr noundef %5, i32 noundef 1)
  store i32 %12, ptr %6, align 4
  br label %13

13:                                               ; preds = %22, %1
  %14 = load i32, ptr %6, align 4
  %15 = sext i32 %14 to i64
  %16 = call i32 @poll(ptr noundef %5, i64 noundef %15, i32 noundef 0)
  %17 = icmp slt i32 %16, 0
  br i1 %17, label %18, label %24

18:                                               ; preds = %13
  %19 = call ptr @__errno_location() #10
  %20 = load i32, ptr %19, align 4
  %21 = icmp eq i32 %20, 4
  br i1 %21, label %22, label %23

22:                                               ; preds = %18
  br label %13, !llvm.loop !10

23:                                               ; preds = %18
  call void @perror(ptr noundef @.str.4)
  call void @abort() #11
  unreachable

24:                                               ; preds = %13
  %25 = load ptr, ptr %4, align 8
  %26 = getelementptr inbounds nuw %struct.PaSndioStream, ptr %25, i32 0, i32 2
  %27 = load ptr, ptr %26, align 8
  %28 = call i32 @sio_revents(ptr noundef %27, ptr noundef %5)
  store i32 %28, ptr %7, align 4
  %29 = load i32, ptr %7, align 4
  %30 = and i32 %29, 1
  %31 = icmp ne i32 %30, 0
  br i1 %31, label %33, label %32

32:                                               ; preds = %24
  store i64 0, ptr %2, align 8
  br label %41

33:                                               ; preds = %24
  %34 = load ptr, ptr %4, align 8
  %35 = getelementptr inbounds nuw %struct.PaSndioStream, ptr %34, i32 0, i32 7
  %36 = load i64, ptr %35, align 8
  %37 = load ptr, ptr %4, align 8
  %38 = getelementptr inbounds nuw %struct.PaSndioStream, ptr %37, i32 0, i32 10
  %39 = load i64, ptr %38, align 8
  %40 = sub i64 %36, %39
  store i64 %40, ptr %2, align 8
  br label %41

41:                                               ; preds = %33, %32
  %42 = load i64, ptr %2, align 8
  ret i64 %42
}